target datalayout = "e-m:e-p270:32:32-p271:32:32-p272:64:64-i64:64-i128:128-f80:128-n8:16:32:64-S128"
target triple = "x86_64-pc-linux-gnu"

@.str.120 = private unnamed_addr constant [5 x i8] c"SADD\00", align 1

; Function Attrs: nounwind uwtable
define dso_local i32 @rewriteSetObject(ptr noundef %0, ptr noundef %1, ptr noundef %2) #0 {
  %4 = alloca i32, align 4
  %5 = alloca ptr, align 8
  %6 = alloca ptr, align 8
  %7 = alloca ptr, align 8
  %8 = alloca i64, align 8
  %9 = alloca i64, align 8
  %10 = alloca ptr, align 8
  %11 = alloca ptr, align 8
  %12 = alloca i64, align 8
  %13 = alloca i64, align 8
  %14 = alloca i32, align 4
  %15 = alloca i32, align 4
  %16 = alloca i64, align 8
  store ptr %0, ptr %5, align 8, !tbaa !173
  store ptr %1, ptr %6, align 8, !tbaa !132
  store ptr %2, ptr %7, align 8, !tbaa !132
  call void @llvm.lifetime.start.p0(i64 8, ptr %8) #12
  store i64 0, ptr %8, align 8, !tbaa !68
  call void @llvm.lifetime.start.p0(i64 8, ptr %9) #12
  %17 = load ptr, ptr %7, align 8, !tbaa !132
  %18 = call i64 @setTypeSize(ptr noundef %17)
  store i64 %18, ptr %9, align 8, !tbaa !68
  call void @llvm.lifetime.start.p0(i64 8, ptr %10) #12
  %19 = load ptr, ptr %7, align 8, !tbaa !132
  %20 = call ptr @setTypeInitIterator(ptr noundef %19)
  store ptr %20, ptr %10, align 8, !tbaa !5
  call void @llvm.lifetime.start.p0(i64 8, ptr %11) #12
  call void @llvm.lifetime.start.p0(i64 8, ptr %12) #12
  call void @llvm.lifetime.start.p0(i64 8, ptr %13) #12
  br label %21

21:                                               ; preds = %86, %3
  %22 = load ptr, ptr %10, align 8, !tbaa !5
  %23 = call i32 @setTypeNext(ptr noundef %22, ptr noundef %11, ptr noundef %12, ptr noundef %13)
  %24 = icmp ne i32 %23, -1
  br i1 %24, label %25, label %87

25:                                               ; preds = %21
  %26 = load i64, ptr %8, align 8, !tbaa !68
  %27 = icmp eq i64 %26, 0
  br i1 %27, label %28, label %58

28:                                               ; preds = %25
  call void @llvm.lifetime.start.p0(i64 4, ptr %14) #12
  %29 = load i64, ptr %9, align 8, !tbaa !68
  %30 = icmp sgt i64 %29, 64
  br i1 %30, label %31, label %32

31:                                               ; preds = %28
  br label %34

32:                                               ; preds = %28
  %33 = load i64, ptr %9, align 8, !tbaa !68
  br label %34

34:                                               ; preds = %32, %31
  %35 = phi i64 [ 64, %31 ], [ %33, %32 ]
  %36 = trunc i64 %35 to i32
  store i32 %36, ptr %14, align 4, !tbaa !22
  %37 = load ptr, ptr %5, align 8, !tbaa !173
  %38 = load i32, ptr %14, align 4, !tbaa !22
  %39 = add nsw i32 2, %38
  %40 = sext i32 %39 to i64
  %41 = call i64 @rioWriteBulkCount(ptr noundef %37, i8 noundef signext 42, i64 noundef %40)
  %42 = icmp ne i64 %41, 0
  br i1 %42, label %43, label %52

43:                                               ; preds = %34
  %44 = load ptr, ptr %5, align 8, !tbaa !173
  %45 = call i64 @rioWriteBulkString(ptr noundef %44, ptr noundef @.str.120, i64 noundef 4)
  %46 = icmp ne i64 %45, 0
  br i1 %46, label %47, label %52

47:                                               ; preds = %43
  %48 = load ptr, ptr %5, align 8, !tbaa !173
  %49 = load ptr, ptr %6, align 8, !tbaa !132
  %50 = call i32 @rioWriteBulkObject(ptr noundef %48, ptr noundef %49)
  %51 = icmp ne i32 %50, 0
  br i1 %51, label %54, label %52

52:                                               ; preds = %47, %43, %34
  %53 = load ptr, ptr %10, align 8, !tbaa !5
  call void @setTypeReleaseIterator(ptr noundef %53)
  store i32 0, ptr %4, align 4
  store i32 1, ptr %15, align 4
  br label %55

54:                                               ; preds = %47
  store i32 0, ptr %15, align 4
  br label %55

55:                                               ; preds = %54, %52
  call void @llvm.lifetime.end.p0(i64 4, ptr %14) #12
  %56 = load i32, ptr %15, align 4
  switch i32 %56, label %89 [
    i32 0, label %57
  ]

57:                                               ; preds = %55
  br label %58

58:                                               ; preds = %57, %25
  call void @llvm.lifetime.start.p0(i64 8, ptr %16) #12
  %59 = load ptr, ptr %11, align 8, !tbaa !18
  %60 = icmp ne ptr %59, null
  br i1 %60, label %61, label %66

61:                                               ; preds = %58
  %62 = load ptr, ptr %5, align 8, !tbaa !173
  %63 = load ptr, ptr %11, align 8, !tbaa !18
  %64 = load i64, ptr %12, align 8, !tbaa !23
  %65 = call i64 @rioWriteBulkString(ptr noundef %62, ptr noundef %63, i64 noundef %64)
  br label %70

66:                                               ; preds = %58
  %67 = load ptr, ptr %5, align 8, !tbaa !173
  %68 = load i64, ptr %13, align 8, !tbaa !23
  %69 = call i64 @rioWriteBulkLongLong(ptr noundef %67, i64 noundef %68)
  br label %70

70:                                               ; preds = %66, %61
  %71 = phi i64 [ %65, %61 ], [ %69, %66 ]
  store i64 %71, ptr %16, align 8, !tbaa !23
  %72 = load i64, ptr %16, align 8, !tbaa !23
  %73 = icmp ne i64 %72, 0
  br i1 %73, label %76, label %74

74:                                               ; preds = %70
  %75 = load ptr, ptr %10, align 8, !tbaa !5
  call void @setTypeReleaseIterator(ptr noundef %75)
  store i32 0, ptr %4, align 4
  store i32 1, ptr %15, align 4
  br label %84

76:                                               ; preds = %70
  %77 = load i64, ptr %8, align 8, !tbaa !68
  %78 = add nsw i64 %77, 1
  store i64 %78, ptr %8, align 8, !tbaa !68
  %79 = icmp eq i64 %78, 64
  br i1 %79, label %80, label %81

80:                                               ; preds = %76
  store i64 0, ptr %8, align 8, !tbaa !68
  br label %81

81:                                               ; preds = %80, %76
  %82 = load i64, ptr %9, align 8, !tbaa !68
  %83 = add nsw i64 %82, -1
  store i64 %83, ptr %9, align 8, !tbaa !68
  store i32 0, ptr %15, align 4
  br label %84

84:                                               ; preds = %81, %74
  call void @llvm.lifetime.end.p0(i64 8, ptr %16) #12
  %85 = load i32, ptr %15, align 4
  switch i32 %85, label %89 [
    i32 0, label %86
  ]

86:                                               ; preds = %84
  br label %21, !llvm.loop !176

87:                                               ; preds = %21
  %88 = load ptr, ptr %10, align 8, !tbaa !5
  call void @setTypeReleaseIterator(ptr noundef %88)
  store i32 1, ptr %4, align 4
  store i32 1, ptr %15, align 4
  br label %89

89:                                               ; preds = %87, %84, %55
  call void @llvm.lifetime.end.p0(i64 8, ptr %13) #12
  call void @llvm.lifetime.end.p0(i64 8, ptr %12) #12
  call void @llvm.lifetime.end.p0(i64 8, ptr %11) #12
  call void @llvm.lifetime.end.p0(i64 8, ptr %10) #12
  call void @llvm.lifetime.end.p0(i64 8, ptr %9) #12
  call void @llvm.lifetime.end.p0(i64 8, ptr %8) #12
  %90 = load i32, ptr %4, align 4
  ret i32 %90
}