; Function Attrs: nounwind uwtable
define dso_local range(i32 0, 2) i32 @rewriteSetObject(ptr noundef %0, ptr noundef readonly captures(none) %1, ptr noundef %2) local_unnamed_addr #0 {
  %4 = alloca ptr, align 8
  %5 = alloca i64, align 8
  %6 = alloca i64, align 8
  %7 = tail call i64 @setTypeSize(ptr noundef %2) #20
  %8 = tail call ptr @setTypeInitIterator(ptr noundef %2) #20
  call void @llvm.lifetime.start.p0(i64 8, ptr nonnull %4) #20
  call void @llvm.lifetime.start.p0(i64 8, ptr nonnull %5) #20
  call void @llvm.lifetime.start.p0(i64 8, ptr nonnull %6) #20
  %9 = call i32 @setTypeNext(ptr noundef %8, ptr noundef nonnull %4, ptr noundef nonnull %5, ptr noundef nonnull %6) #20
  %.not36 = icmp eq i32 %9, -1
  br i1 %.not36, label %.critedge, label %.lr.ph

.lr.ph:                                           ; preds = %3, %30
  %.02438 = phi i64 [ %spec.store.select, %30 ], [ 0, %3 ]
  %.02637 = phi i64 [ %33, %30 ], [ %7, %3 ]
  %10 = icmp eq i64 %.02438, 0
  br i1 %10, label %11, label %20

11:                                               ; preds = %.lr.ph
  %12 = call i64 @llvm.smin.i64(i64 %.02637, i64 64)
  %13 = shl i64 %12, 32
  %sext = add i64 %13, 8589934592
  %14 = ashr exact i64 %sext, 32
  %15 = call i64 @rioWriteBulkCount(ptr noundef %0, i8 noundef signext 42, i64 noundef %14) #20
  %.not29 = icmp eq i64 %15, 0
  br i1 %.not29, label %.critedge, label %16

16:                                               ; preds = %11
  %17 = call i64 @rioWriteBulkString(ptr noundef %0, ptr noundef nonnull @.str.120, i64 noundef 4) #20
  %.not30 = icmp eq i64 %17, 0
  br i1 %.not30, label %.critedge, label %18

18:                                               ; preds = %16
  %19 = call i32 @rioWriteBulkObject(ptr noundef %0, ptr noundef %1)
  %.not31 = icmp eq i32 %19, 0
  br i1 %.not31, label %.critedge, label %20

20:                                               ; preds = %18, %.lr.ph
  %21 = load ptr, ptr %4, align 8, !tbaa !66
  %.not32 = icmp eq ptr %21, null
  br i1 %.not32, label %25, label %22

22:                                               ; preds = %20
  %23 = load i64, ptr %5, align 8, !tbaa !22
  %24 = call i64 @rioWriteBulkString(ptr noundef %0, ptr noundef nonnull %21, i64 noundef %23) #20
  br label %28

25:                                               ; preds = %20
  %26 = load i64, ptr %6, align 8, !tbaa !22
  %27 = call i64 @rioWriteBulkLongLong(ptr noundef %0, i64 noundef %26) #20
  br label %28

28:                                               ; preds = %25, %22
  %29 = phi i64 [ %24, %22 ], [ %27, %25 ]
  %.not33.not = icmp eq i64 %29, 0
  br i1 %.not33.not, label %.critedge, label %30

30:                                               ; preds = %28
  %31 = add nsw i64 %.02438, 1
  %32 = icmp eq i64 %31, 64
  %spec.store.select = select i1 %32, i64 0, i64 %31
  %33 = add nsw i64 %.02637, -1
  %34 = call i32 @setTypeNext(ptr noundef %8, ptr noundef nonnull %4, ptr noundef nonnull %5, ptr noundef nonnull %6) #20
  %.not = icmp eq i32 %34, -1
  br i1 %.not, label %.critedge, label %.lr.ph, !llvm.loop !157

.critedge:                                        ; preds = %30, %28, %11, %16, %18, %3
  %.3 = phi i32 [ 1, %3 ], [ 0, %18 ], [ 0, %16 ], [ 0, %11 ], [ 0, %28 ], [ 1, %30 ]
  call void @setTypeReleaseIterator(ptr noundef %8) #20
  call void @llvm.lifetime.end.p0(i64 8, ptr nonnull %6) #20
  call void @llvm.lifetime.end.p0(i64 8, ptr nonnull %5) #20
  call void @llvm.lifetime.end.p0(i64 8, ptr nonnull %4) #20
  ret i32 %.3
}